(lp0
(F32.01713448648648
F-81.85981603225807
tp1
a(F32.01713448648648
F-81.393881
tp2
a(F32.01713448648648
F-80.92794596774193
tp3
a(F32.35111955405405
F-82.32575106451613
tp4
a(F32.35111955405405
F-81.85981603225807
tp5
a(F32.35111955405405
F-81.393881
tp6
a(F32.35111955405405
F-80.92794596774193
tp7
a(F32.35111955405405
F-80.46201093548387
tp8
a(F32.68510462162162
F-83.25762112903226
tp9
a(F32.68510462162162
F-82.79168609677419
tp10
a(F32.68510462162162
F-82.32575106451613
tp11
a(F32.68510462162162
F-81.85981603225807
tp12
a(F32.68510462162162
F-81.393881
tp13
a(F32.68510462162162
F-80.92794596774193
tp14
a(F32.68510462162162
F-80.46201093548387
tp15
a(F32.68510462162162
F-79.9960759032258
tp16
a(F33.01908968918919
F-83.72355616129033
tp17
a(F33.01908968918919
F-83.25762112903226
tp18
a(F33.01908968918919
F-82.79168609677419
tp19
a(F33.01908968918919
F-82.32575106451613
tp20
a(F33.01908968918919
F-81.85981603225807
tp21
a(F33.01908968918919
F-81.393881
tp22
a(F33.01908968918919
F-80.92794596774193
tp23
a(F33.353074756756754
F-84.65542622580645
tp24
a(F33.353074756756754
F-84.18949119354838
tp25
a(F33.353074756756754
F-83.72355616129033
tp26
a(F33.353074756756754
F-83.25762112903226
tp27
a(F33.353074756756754
F-82.79168609677419
tp28
a(F33.353074756756754
F-82.32575106451613
tp29
a(F33.353074756756754
F-81.85981603225807
tp30
a(F33.353074756756754
F-81.393881
tp31
a(F33.68705982432432
F-85.12136125806452
tp32
a(F33.68705982432432
F-84.65542622580645
tp33
a(F33.68705982432432
F-84.18949119354838
tp34
a(F33.68705982432432
F-83.72355616129033
tp35
a(F33.68705982432432
F-83.25762112903226
tp36
a(F33.68705982432432
F-82.79168609677419
tp37
a(F33.68705982432432
F-82.32575106451613
tp38
a(F33.68705982432432
F-79.53014087096774
tp39
a(F33.68705982432432
F-79.06420583870968
tp40
a(F34.02104489189189
F-86.05323132258064
tp41
a(F34.02104489189189
F-85.58729629032258
tp42
a(F34.02104489189189
F-85.12136125806452
tp43
a(F34.02104489189189
F-84.65542622580645
tp44
a(F34.02104489189189
F-84.18949119354838
tp45
a(F34.02104489189189
F-83.72355616129033
tp46
a(F34.02104489189189
F-83.25762112903226
tp47
a(F34.02104489189189
F-82.79168609677419
tp48
a(F34.02104489189189
F-79.9960759032258
tp49
a(F34.02104489189189
F-79.53014087096774
tp50
a(F34.02104489189189
F-79.06420583870968
tp51
a(F34.02104489189189
F-78.59827080645161
tp52
a(F34.02104489189189
F-78.13233577419355
tp53
a(F34.35502995945946
F-86.51916635483872
tp54
a(F34.35502995945946
F-86.05323132258064
tp55
a(F34.35502995945946
F-85.58729629032258
tp56
a(F34.35502995945946
F-85.12136125806452
tp57
a(F34.35502995945946
F-84.65542622580645
tp58
a(F34.35502995945946
F-84.18949119354838
tp59
a(F34.35502995945946
F-83.72355616129033
tp60
a(F34.35502995945946
F-80.46201093548387
tp61
a(F34.35502995945946
F-79.9960759032258
tp62
a(F34.35502995945946
F-79.53014087096774
tp63
a(F34.35502995945946
F-79.06420583870968
tp64
a(F34.35502995945946
F-78.59827080645161
tp65
a(F34.35502995945946
F-78.13233577419355
tp66
a(F34.689015027027025
F-87.45103641935484
tp67
a(F34.689015027027025
F-86.98510138709678
tp68
a(F34.689015027027025
F-86.51916635483872
tp69
a(F34.689015027027025
F-86.05323132258064
tp70
a(F34.689015027027025
F-85.58729629032258
tp71
a(F34.689015027027025
F-85.12136125806452
tp72
a(F34.689015027027025
F-84.65542622580645
tp73
a(F34.689015027027025
F-84.18949119354838
tp74
a(F34.689015027027025
F-81.393881
tp75
a(F34.689015027027025
F-80.92794596774193
tp76
a(F34.689015027027025
F-80.46201093548387
tp77
a(F34.689015027027025
F-79.9960759032258
tp78
a(F34.689015027027025
F-79.53014087096774
tp79
a(F34.689015027027025
F-79.06420583870968
tp80
a(F34.689015027027025
F-78.59827080645161
tp81
a(F35.02300009459459
F-87.91697145161291
tp82
a(F35.02300009459459
F-87.45103641935484
tp83
a(F35.02300009459459
F-86.98510138709678
tp84
a(F35.02300009459459
F-86.51916635483872
tp85
a(F35.02300009459459
F-86.05323132258064
tp86
a(F35.02300009459459
F-85.58729629032258
tp87
a(F35.02300009459459
F-85.12136125806452
tp88
a(F35.02300009459459
F-81.85981603225807
tp89
a(F35.02300009459459
F-81.393881
tp90
a(F35.02300009459459
F-80.92794596774193
tp91
a(F35.02300009459459
F-80.46201093548387
tp92
a(F35.02300009459459
F-79.9960759032258
tp93
a(F35.02300009459459
F-79.53014087096774
tp94
a(F35.02300009459459
F-79.06420583870968
tp95
a(F35.35698516216216
F-88.84884151612903
tp96
a(F35.35698516216216
F-88.38290648387097
tp97
a(F35.35698516216216
F-87.91697145161291
tp98
a(F35.35698516216216
F-87.45103641935484
tp99
a(F35.35698516216216
F-86.98510138709678
tp100
a(F35.35698516216216
F-86.51916635483872
tp101
a(F35.35698516216216
F-86.05323132258064
tp102
a(F35.35698516216216
F-85.58729629032258
tp103
a(F35.35698516216216
F-82.79168609677419
tp104
a(F35.35698516216216
F-82.32575106451613
tp105
a(F35.35698516216216
F-81.85981603225807
tp106
a(F35.35698516216216
F-81.393881
tp107
a(F35.35698516216216
F-80.92794596774193
tp108
a(F35.35698516216216
F-80.46201093548387
tp109
a(F35.35698516216216
F-79.9960759032258
tp110
a(F35.69097022972973
F-89.78071158064516
tp111
a(F35.69097022972973
F-89.3147765483871
tp112
a(F35.69097022972973
F-88.84884151612903
tp113
a(F35.69097022972973
F-88.38290648387097
tp114
a(F35.69097022972973
F-87.91697145161291
tp115
a(F35.69097022972973
F-87.45103641935484
tp116
a(F35.69097022972973
F-86.98510138709678
tp117
a(F35.69097022972973
F-86.51916635483872
tp118
a(F35.69097022972973
F-83.25762112903226
tp119
a(F35.69097022972973
F-82.79168609677419
tp120
a(F35.69097022972973
F-82.32575106451613
tp121
a(F35.69097022972973
F-81.85981603225807
tp122
a(F35.69097022972973
F-81.393881
tp123
a(F35.69097022972973
F-80.92794596774193
tp124
a(F35.69097022972973
F-80.46201093548387
tp125
a(F36.024955297297296
F-90.24664661290322
tp126
a(F36.024955297297296
F-89.78071158064516
tp127
a(F36.024955297297296
F-89.3147765483871
tp128
a(F36.024955297297296
F-88.84884151612903
tp129
a(F36.024955297297296
F-88.38290648387097
tp130
a(F36.024955297297296
F-87.91697145161291
tp131
a(F36.024955297297296
F-87.45103641935484
tp132
a(F36.024955297297296
F-86.98510138709678
tp133
a(F36.024955297297296
F-84.18949119354838
tp134
a(F36.024955297297296
F-83.72355616129033
tp135
a(F36.024955297297296
F-83.25762112903226
tp136
a(F36.024955297297296
F-82.79168609677419
tp137
a(F36.024955297297296
F-82.32575106451613
tp138
a(F36.024955297297296
F-81.85981603225807
tp139
a(F36.024955297297296
F-81.393881
tp140
a(F36.024955297297296
F-80.92794596774193
tp141
a(F36.358940364864864
F-91.17851667741937
tp142
a(F36.358940364864864
F-90.7125816451613
tp143
a(F36.358940364864864
F-90.24664661290322
tp144
a(F36.358940364864864
F-89.78071158064516
tp145
a(F36.358940364864864
F-89.3147765483871
tp146
a(F36.358940364864864
F-88.84884151612903
tp147
a(F36.358940364864864
F-88.38290648387097
tp148
a(F36.358940364864864
F-87.91697145161291
tp149
a(F36.358940364864864
F-84.65542622580645
tp150
a(F36.358940364864864
F-84.18949119354838
tp151
a(F36.358940364864864
F-83.72355616129033
tp152
a(F36.358940364864864
F-83.25762112903226
tp153
a(F36.358940364864864
F-82.79168609677419
tp154
a(F36.358940364864864
F-82.32575106451613
tp155
a(F36.358940364864864
F-81.85981603225807
tp156
a(F36.69292543243243
F-92.11038674193549
tp157
a(F36.69292543243243
F-91.64445170967741
tp158
a(F36.69292543243243
F-91.17851667741937
tp159
a(F36.69292543243243
F-90.7125816451613
tp160
a(F36.69292543243243
F-90.24664661290322
tp161
a(F36.69292543243243
F-89.78071158064516
tp162
a(F36.69292543243243
F-89.3147765483871
tp163
a(F36.69292543243243
F-88.84884151612903
tp164
a(F36.69292543243243
F-85.58729629032258
tp165
a(F36.69292543243243
F-85.12136125806452
tp166
a(F36.69292543243243
F-84.65542622580645
tp167
a(F36.69292543243243
F-84.18949119354838
tp168
a(F36.69292543243243
F-83.72355616129033
tp169
a(F36.69292543243243
F-83.25762112903226
tp170
a(F36.69292543243243
F-82.79168609677419
tp171
a(F36.69292543243243
F-82.32575106451613
tp172
a(F37.0269105
F-93.04225680645162
tp173
a(F37.0269105
F-92.57632177419356
tp174
a(F37.0269105
F-92.11038674193549
tp175
a(F37.0269105
F-91.64445170967741
tp176
a(F37.0269105
F-91.17851667741937
tp177
a(F37.0269105
F-90.7125816451613
tp178
a(F37.0269105
F-90.24664661290322
tp179
a(F37.0269105
F-89.78071158064516
tp180
a(F37.0269105
F-89.3147765483871
tp181
a(F37.0269105
F-86.05323132258064
tp182
a(F37.0269105
F-85.58729629032258
tp183
a(F37.0269105
F-85.12136125806452
tp184
a(F37.0269105
F-84.65542622580645
tp185
a(F37.0269105
F-84.18949119354838
tp186
a(F37.0269105
F-83.72355616129033
tp187
a(F37.0269105
F-83.25762112903226
tp188
a(F37.36089556756757
F-93.97412687096775
tp189
a(F37.36089556756757
F-93.50819183870968
tp190
a(F37.36089556756757
F-93.04225680645162
tp191
a(F37.36089556756757
F-92.57632177419356
tp192
a(F37.36089556756757
F-92.11038674193549
tp193
a(F37.36089556756757
F-91.64445170967741
tp194
a(F37.36089556756757
F-91.17851667741937
tp195
a(F37.36089556756757
F-90.7125816451613
tp196
a(F37.36089556756757
F-90.24664661290322
tp197
a(F37.36089556756757
F-86.98510138709678
tp198
a(F37.36089556756757
F-86.51916635483872
tp199
a(F37.36089556756757
F-86.05323132258064
tp200
a(F37.36089556756757
F-85.58729629032258
tp201
a(F37.36089556756757
F-85.12136125806452
tp202
a(F37.36089556756757
F-84.65542622580645
tp203
a(F37.36089556756757
F-84.18949119354838
tp204
a(F37.36089556756757
F-83.72355616129033
tp205
a(F37.694880635135135
F-94.90599693548387
tp206
a(F37.694880635135135
F-94.44006190322581
tp207
a(F37.694880635135135
F-93.97412687096775
tp208
a(F37.694880635135135
F-93.50819183870968
tp209
a(F37.694880635135135
F-93.04225680645162
tp210
a(F37.694880635135135
F-92.57632177419356
tp211
a(F37.694880635135135
F-92.11038674193549
tp212
a(F37.694880635135135
F-91.64445170967741
tp213
a(F37.694880635135135
F-91.17851667741937
tp214
a(F37.694880635135135
F-87.91697145161291
tp215
a(F37.694880635135135
F-87.45103641935484
tp216
a(F37.694880635135135
F-86.98510138709678
tp217
a(F37.694880635135135
F-86.51916635483872
tp218
a(F37.694880635135135
F-86.05323132258064
tp219
a(F37.694880635135135
F-85.58729629032258
tp220
a(F37.694880635135135
F-85.12136125806452
tp221
a(F37.694880635135135
F-84.65542622580645
tp222
a(F38.0288657027027
F-95.837867
tp223
a(F38.0288657027027
F-95.37193196774194
tp224
a(F38.0288657027027
F-94.90599693548387
tp225
a(F38.0288657027027
F-94.44006190322581
tp226
a(F38.0288657027027
F-93.97412687096775
tp227
a(F38.0288657027027
F-93.50819183870968
tp228
a(F38.0288657027027
F-93.04225680645162
tp229
a(F38.0288657027027
F-92.57632177419356
tp230
a(F38.0288657027027
F-92.11038674193549
tp231
a(F38.0288657027027
F-88.38290648387097
tp232
a(F38.0288657027027
F-87.91697145161291
tp233
a(F38.0288657027027
F-87.45103641935484
tp234
a(F38.0288657027027
F-86.98510138709678
tp235
a(F38.0288657027027
F-86.51916635483872
tp236
a(F38.0288657027027
F-86.05323132258064
tp237
a(F38.0288657027027
F-85.58729629032258
tp238
a(F38.0288657027027
F-85.12136125806452
tp239
a(F38.36285077027027
F-96.76973706451614
tp240
a(F38.36285077027027
F-96.30380203225806
tp241
a(F38.36285077027027
F-95.837867
tp242
a(F38.36285077027027
F-95.37193196774194
tp243
a(F38.36285077027027
F-94.90599693548387
tp244
a(F38.36285077027027
F-94.44006190322581
tp245
a(F38.36285077027027
F-93.97412687096775
tp246
a(F38.36285077027027
F-93.50819183870968
tp247
a(F38.36285077027027
F-93.04225680645162
tp248
a(F38.36285077027027
F-92.57632177419356
tp249
a(F38.36285077027027
F-89.3147765483871
tp250
a(F38.36285077027027
F-88.84884151612903
tp251
a(F38.36285077027027
F-88.38290648387097
tp252
a(F38.36285077027027
F-87.91697145161291
tp253
a(F38.36285077027027
F-87.45103641935484
tp254
a(F38.36285077027027
F-86.98510138709678
tp255
a(F38.36285077027027
F-86.51916635483872
tp256
a(F38.36285077027027
F-86.05323132258064
tp257
a(F38.69683583783784
F-98.16754216129033
tp258
a(F38.69683583783784
F-97.70160712903225
tp259
a(F38.69683583783784
F-97.2356720967742
tp260
a(F38.69683583783784
F-96.76973706451614
tp261
a(F38.69683583783784
F-96.30380203225806
tp262
a(F38.69683583783784
F-95.837867
tp263
a(F38.69683583783784
F-95.37193196774194
tp264
a(F38.69683583783784
F-94.90599693548387
tp265
a(F38.69683583783784
F-94.44006190322581
tp266
a(F38.69683583783784
F-93.97412687096775
tp267
a(F38.69683583783784
F-93.50819183870968
tp268
a(F38.69683583783784
F-90.24664661290322
tp269
a(F38.69683583783784
F-89.78071158064516
tp270
a(F38.69683583783784
F-89.3147765483871
tp271
a(F38.69683583783784
F-88.84884151612903
tp272
a(F38.69683583783784
F-88.38290648387097
tp273
a(F38.69683583783784
F-87.91697145161291
tp274
a(F38.69683583783784
F-87.45103641935484
tp275
a(F38.69683583783784
F-86.98510138709678
tp276
a(F39.030820905405406
F-99.09941222580645
tp277
a(F39.030820905405406
F-98.63347719354839
tp278
a(F39.030820905405406
F-98.16754216129033
tp279
a(F39.030820905405406
F-97.70160712903225
tp280
a(F39.030820905405406
F-97.2356720967742
tp281
a(F39.030820905405406
F-96.76973706451614
tp282
a(F39.030820905405406
F-96.30380203225806
tp283
a(F39.030820905405406
F-95.837867
tp284
a(F39.030820905405406
F-95.37193196774194
tp285
a(F39.030820905405406
F-94.90599693548387
tp286
a(F39.030820905405406
F-94.44006190322581
tp287
a(F39.030820905405406
F-91.17851667741937
tp288
a(F39.030820905405406
F-90.7125816451613
tp289
a(F39.030820905405406
F-90.24664661290322
tp290
a(F39.030820905405406
F-89.78071158064516
tp291
a(F39.030820905405406
F-89.3147765483871
tp292
a(F39.030820905405406
F-88.84884151612903
tp293
a(F39.030820905405406
F-88.38290648387097
tp294
a(F39.030820905405406
F-87.91697145161291
tp295
a(F39.030820905405406
F-87.45103641935484
tp296
a(F39.364805972972974
F-100.03128229032258
tp297
a(F39.364805972972974
F-99.56534725806452
tp298
a(F39.364805972972974
F-99.09941222580645
tp299
a(F39.364805972972974
F-98.63347719354839
tp300
a(F39.364805972972974
F-98.16754216129033
tp301
a(F39.364805972972974
F-97.70160712903225
tp302
a(F39.364805972972974
F-97.2356720967742
tp303
a(F39.364805972972974
F-96.76973706451614
tp304
a(F39.364805972972974
F-96.30380203225806
tp305
a(F39.364805972972974
F-95.837867
tp306
a(F39.364805972972974
F-92.11038674193549
tp307
a(F39.364805972972974
F-91.64445170967741
tp308
a(F39.364805972972974
F-91.17851667741937
tp309
a(F39.364805972972974
F-90.7125816451613
tp310
a(F39.364805972972974
F-90.24664661290322
tp311
a(F39.364805972972974
F-89.78071158064516
tp312
a(F39.364805972972974
F-89.3147765483871
tp313
a(F39.364805972972974
F-88.84884151612903
tp314
a(F39.364805972972974
F-88.38290648387097
tp315
a(F39.69879104054054
F-101.42908738709679
tp316
a(F39.69879104054054
F-100.96315235483871
tp317
a(F39.69879104054054
F-100.49721732258065
tp318
a(F39.69879104054054
F-100.03128229032258
tp319
a(F39.69879104054054
F-99.56534725806452
tp320
a(F39.69879104054054
F-99.09941222580645
tp321
a(F39.69879104054054
F-98.63347719354839
tp322
a(F39.69879104054054
F-98.16754216129033
tp323
a(F39.69879104054054
F-97.70160712903225
tp324
a(F39.69879104054054
F-97.2356720967742
tp325
a(F39.69879104054054
F-96.76973706451614
tp326
a(F39.69879104054054
F-93.04225680645162
tp327
a(F39.69879104054054
F-92.57632177419356
tp328
a(F39.69879104054054
F-92.11038674193549
tp329
a(F39.69879104054054
F-91.64445170967741
tp330
a(F39.69879104054054
F-91.17851667741937
tp331
a(F39.69879104054054
F-90.7125816451613
tp332
a(F39.69879104054054
F-90.24664661290322
tp333
a(F39.69879104054054
F-89.78071158064516
tp334
a(F39.69879104054054
F-89.3147765483871
tp335
a(F40.03277610810811
F-102.82689248387098
tp336
a(F40.03277610810811
F-102.3609574516129
tp337
a(F40.03277610810811
F-101.89502241935485
tp338
a(F40.03277610810811
F-101.42908738709679
tp339
a(F40.03277610810811
F-100.96315235483871
tp340
a(F40.03277610810811
F-100.49721732258065
tp341
a(F40.03277610810811
F-100.03128229032258
tp342
a(F40.03277610810811
F-99.56534725806452
tp343
a(F40.03277610810811
F-99.09941222580645
tp344
a(F40.03277610810811
F-98.63347719354839
tp345
a(F40.03277610810811
F-98.16754216129033
tp346
a(F40.03277610810811
F-97.70160712903225
tp347
a(F40.03277610810811
F-93.97412687096775
tp348
a(F40.03277610810811
F-93.50819183870968
tp349
a(F40.03277610810811
F-93.04225680645162
tp350
a(F40.03277610810811
F-92.57632177419356
tp351
a(F40.03277610810811
F-92.11038674193549
tp352
a(F40.03277610810811
F-91.64445170967741
tp353
a(F40.03277610810811
F-91.17851667741937
tp354
a(F40.03277610810811
F-90.7125816451613
tp355
a(F40.03277610810811
F-90.24664661290322
tp356
a(F40.03277610810811
F-89.78071158064516
tp357
a(F40.36676117567568
F-104.22469758064517
tp358
a(F40.36676117567568
F-103.7587625483871
tp359
a(F40.36676117567568
F-103.29282751612904
tp360
a(F40.36676117567568
F-102.82689248387098
tp361
a(F40.36676117567568
F-102.3609574516129
tp362
a(F40.36676117567568
F-101.89502241935485
tp363
a(F40.36676117567568
F-101.42908738709679
tp364
a(F40.36676117567568
F-100.96315235483871
tp365
a(F40.36676117567568
F-100.49721732258065
tp366
a(F40.36676117567568
F-100.03128229032258
tp367
a(F40.36676117567568
F-99.56534725806452
tp368
a(F40.36676117567568
F-99.09941222580645
tp369
a(F40.36676117567568
F-98.63347719354839
tp370
a(F40.36676117567568
F-94.90599693548387
tp371
a(F40.36676117567568
F-94.44006190322581
tp372
a(F40.36676117567568
F-93.97412687096775
tp373
a(F40.36676117567568
F-93.50819183870968
tp374
a(F40.36676117567568
F-93.04225680645162
tp375
a(F40.36676117567568
F-92.57632177419356
tp376
a(F40.36676117567568
F-92.11038674193549
tp377
a(F40.36676117567568
F-91.64445170967741
tp378
a(F40.36676117567568
F-91.17851667741937
tp379
a(F40.36676117567568
F-90.7125816451613
tp380
a(F40.700746243243245
F-105.62250267741936
tp381
a(F40.700746243243245
F-105.15656764516129
tp382
a(F40.700746243243245
F-104.69063261290323
tp383
a(F40.700746243243245
F-104.22469758064517
tp384
a(F40.700746243243245
F-103.7587625483871
tp385
a(F40.700746243243245
F-103.29282751612904
tp386
a(F40.700746243243245
F-102.82689248387098
tp387
a(F40.700746243243245
F-102.3609574516129
tp388
a(F40.700746243243245
F-101.89502241935485
tp389
a(F40.700746243243245
F-101.42908738709679
tp390
a(F40.700746243243245
F-100.96315235483871
tp391
a(F40.700746243243245
F-100.49721732258065
tp392
a(F40.700746243243245
F-100.03128229032258
tp393
a(F40.700746243243245
F-95.837867
tp394
a(F40.700746243243245
F-95.37193196774194
tp395
a(F40.700746243243245
F-94.90599693548387
tp396
a(F40.700746243243245
F-94.44006190322581
tp397
a(F40.700746243243245
F-93.97412687096775
tp398
a(F40.700746243243245
F-93.50819183870968
tp399
a(F40.700746243243245
F-93.04225680645162
tp400
a(F40.700746243243245
F-92.57632177419356
tp401
a(F40.700746243243245
F-92.11038674193549
tp402
a(F40.700746243243245
F-91.64445170967741
tp403
a(F41.03473131081081
F-107.48624280645161
tp404
a(F41.03473131081081
F-107.02030777419355
tp405
a(F41.03473131081081
F-106.55437274193548
tp406
a(F41.03473131081081
F-106.08843770967742
tp407
a(F41.03473131081081
F-105.62250267741936
tp408
a(F41.03473131081081
F-105.15656764516129
tp409
a(F41.03473131081081
F-104.69063261290323
tp410
a(F41.03473131081081
F-104.22469758064517
tp411
a(F41.03473131081081
F-103.7587625483871
tp412
a(F41.03473131081081
F-103.29282751612904
tp413
a(F41.03473131081081
F-102.82689248387098
tp414
a(F41.03473131081081
F-102.3609574516129
tp415
a(F41.03473131081081
F-101.89502241935485
tp416
a(F41.03473131081081
F-101.42908738709679
tp417
a(F41.03473131081081
F-100.96315235483871
tp418
a(F41.03473131081081
F-96.76973706451614
tp419
a(F41.03473131081081
F-96.30380203225806
tp420
a(F41.03473131081081
F-95.837867
tp421
a(F41.03473131081081
F-95.37193196774194
tp422
a(F41.03473131081081
F-94.90599693548387
tp423
a(F41.03473131081081
F-94.44006190322581
tp424
a(F41.03473131081081
F-93.97412687096775
tp425
a(F41.03473131081081
F-93.50819183870968
tp426
a(F41.03473131081081
F-93.04225680645162
tp427
a(F41.03473131081081
F-92.57632177419356
tp428
a(F41.36871637837838
F-109.34998293548388
tp429
a(F41.36871637837838
F-108.8840479032258
tp430
a(F41.36871637837838
F-108.41811287096775
tp431
a(F41.36871637837838
F-107.95217783870969
tp432
a(F41.36871637837838
F-107.48624280645161
tp433
a(F41.36871637837838
F-107.02030777419355
tp434
a(F41.36871637837838
F-106.55437274193548
tp435
a(F41.36871637837838
F-106.08843770967742
tp436
a(F41.36871637837838
F-105.62250267741936
tp437
a(F41.36871637837838
F-105.15656764516129
tp438
a(F41.36871637837838
F-104.69063261290323
tp439
a(F41.36871637837838
F-104.22469758064517
tp440
a(F41.36871637837838
F-103.7587625483871
tp441
a(F41.36871637837838
F-103.29282751612904
tp442
a(F41.36871637837838
F-102.82689248387098
tp443
a(F41.36871637837838
F-102.3609574516129
tp444
a(F41.36871637837838
F-98.16754216129033
tp445
a(F41.36871637837838
F-97.70160712903225
tp446
a(F41.36871637837838
F-97.2356720967742
tp447
a(F41.36871637837838
F-96.76973706451614
tp448
a(F41.36871637837838
F-96.30380203225806
tp449
a(F41.36871637837838
F-95.837867
tp450
a(F41.36871637837838
F-95.37193196774194
tp451
a(F41.36871637837838
F-94.90599693548387
tp452
a(F41.36871637837838
F-94.44006190322581
tp453
a(F41.36871637837838
F-93.97412687096775
tp454
a(F41.36871637837838
F-93.50819183870968
tp455
a(F41.70270144594595
F-111.21372306451613
tp456
a(F41.70270144594595
F-110.74778803225807
tp457
a(F41.70270144594595
F-110.28185300000001
tp458
a(F41.70270144594595
F-109.81591796774194
tp459
a(F41.70270144594595
F-109.34998293548388
tp460
a(F41.70270144594595
F-108.8840479032258
tp461
a(F41.70270144594595
F-108.41811287096775
tp462
a(F41.70270144594595
F-107.95217783870969
tp463
a(F41.70270144594595
F-107.48624280645161
tp464
a(F41.70270144594595
F-107.02030777419355
tp465
a(F41.70270144594595
F-106.55437274193548
tp466
a(F41.70270144594595
F-106.08843770967742
tp467
a(F41.70270144594595
F-105.62250267741936
tp468
a(F41.70270144594595
F-105.15656764516129
tp469
a(F41.70270144594595
F-104.69063261290323
tp470
a(F41.70270144594595
F-104.22469758064517
tp471
a(F41.70270144594595
F-103.7587625483871
tp472
a(F41.70270144594595
F-99.09941222580645
tp473
a(F41.70270144594595
F-98.63347719354839
tp474
a(F41.70270144594595
F-98.16754216129033
tp475
a(F41.70270144594595
F-97.70160712903225
tp476
a(F41.70270144594595
F-97.2356720967742
tp477
a(F41.70270144594595
F-96.76973706451614
tp478
a(F41.70270144594595
F-96.30380203225806
tp479
a(F41.70270144594595
F-95.837867
tp480
a(F41.70270144594595
F-95.37193196774194
tp481
a(F41.70270144594595
F-94.90599693548387
tp482
a(F41.70270144594595
F-94.44006190322581
tp483
a(F42.036686513513516
F-113.54339822580646
tp484
a(F42.036686513513516
F-113.0774631935484
tp485
a(F42.036686513513516
F-112.61152816129032
tp486
a(F42.036686513513516
F-112.14559312903226
tp487
a(F42.036686513513516
F-111.6796580967742
tp488
a(F42.036686513513516
F-111.21372306451613
tp489
a(F42.036686513513516
F-110.74778803225807
tp490
a(F42.036686513513516
F-110.28185300000001
tp491
a(F42.036686513513516
F-109.81591796774194
tp492
a(F42.036686513513516
F-109.34998293548388
tp493
a(F42.036686513513516
F-108.8840479032258
tp494
a(F42.036686513513516
F-108.41811287096775
tp495
a(F42.036686513513516
F-107.95217783870969
tp496
a(F42.036686513513516
F-107.48624280645161
tp497
a(F42.036686513513516
F-107.02030777419355
tp498
a(F42.036686513513516
F-106.55437274193548
tp499
a(F42.036686513513516
F-106.08843770967742
tp500
a(F42.036686513513516
F-105.62250267741936
tp501
a(F42.036686513513516
F-105.15656764516129
tp502
a(F42.036686513513516
F-100.49721732258065
tp503
a(F42.036686513513516
F-100.03128229032258
tp504
a(F42.036686513513516
F-99.56534725806452
tp505
a(F42.036686513513516
F-99.09941222580645
tp506
a(F42.036686513513516
F-98.63347719354839
tp507
a(F42.036686513513516
F-98.16754216129033
tp508
a(F42.036686513513516
F-97.70160712903225
tp509
a(F42.036686513513516
F-97.2356720967742
tp510
a(F42.036686513513516
F-96.76973706451614
tp511
a(F42.036686513513516
F-96.30380203225806
tp512
a(F42.036686513513516
F-95.837867
tp513
a(F42.036686513513516
F-95.37193196774194
tp514
a(F42.37067158108108
F-116.33900841935484
tp515
a(F42.37067158108108
F-115.87307338709678
tp516
a(F42.37067158108108
F-115.40713835483872
tp517
a(F42.37067158108108
F-114.94120332258065
tp518
a(F42.37067158108108
F-114.47526829032259
tp519
a(F42.37067158108108
F-114.00933325806452
tp520
a(F42.37067158108108
F-113.54339822580646
tp521
a(F42.37067158108108
F-113.0774631935484
tp522
a(F42.37067158108108
F-112.61152816129032
tp523
a(F42.37067158108108
F-112.14559312903226
tp524
a(F42.37067158108108
F-111.6796580967742
tp525
a(F42.37067158108108
F-111.21372306451613
tp526
a(F42.37067158108108
F-110.74778803225807
tp527
a(F42.37067158108108
F-110.28185300000001
tp528
a(F42.37067158108108
F-109.81591796774194
tp529
a(F42.37067158108108
F-109.34998293548388
tp530
a(F42.37067158108108
F-108.8840479032258
tp531
a(F42.37067158108108
F-108.41811287096775
tp532
a(F42.37067158108108
F-107.95217783870969
tp533
a(F42.37067158108108
F-107.48624280645161
tp534
a(F42.37067158108108
F-107.02030777419355
tp535
a(F42.37067158108108
F-101.89502241935485
tp536
a(F42.37067158108108
F-101.42908738709679
tp537
a(F42.37067158108108
F-100.96315235483871
tp538
a(F42.37067158108108
F-100.49721732258065
tp539
a(F42.37067158108108
F-100.03128229032258
tp540
a(F42.37067158108108
F-99.56534725806452
tp541
a(F42.37067158108108
F-99.09941222580645
tp542
a(F42.37067158108108
F-98.63347719354839
tp543
a(F42.37067158108108
F-98.16754216129033
tp544
a(F42.37067158108108
F-97.70160712903225
tp545
a(F42.37067158108108
F-97.2356720967742
tp546
a(F42.37067158108108
F-96.76973706451614
tp547
a(F42.70465664864865
F-120.53242370967743
tp548
a(F42.70465664864865
F-120.06648867741936
tp549
a(F42.70465664864865
F-119.6005536451613
tp550
a(F42.70465664864865
F-119.13461861290324
tp551
a(F42.70465664864865
F-118.66868358064517
tp552
a(F42.70465664864865
F-118.2027485483871
tp553
a(F42.70465664864865
F-117.73681351612903
tp554
a(F42.70465664864865
F-117.27087848387097
tp555
a(F42.70465664864865
F-116.80494345161291
tp556
a(F42.70465664864865
F-116.33900841935484
tp557
a(F42.70465664864865
F-115.87307338709678
tp558
a(F42.70465664864865
F-115.40713835483872
tp559
a(F42.70465664864865
F-114.94120332258065
tp560
a(F42.70465664864865
F-114.47526829032259
tp561
a(F42.70465664864865
F-114.00933325806452
tp562
a(F42.70465664864865
F-113.54339822580646
tp563
a(F42.70465664864865
F-113.0774631935484
tp564
a(F42.70465664864865
F-112.61152816129032
tp565
a(F42.70465664864865
F-112.14559312903226
tp566
a(F42.70465664864865
F-111.6796580967742
tp567
a(F42.70465664864865
F-111.21372306451613
tp568
a(F42.70465664864865
F-110.74778803225807
tp569
a(F42.70465664864865
F-110.28185300000001
tp570
a(F42.70465664864865
F-109.81591796774194
tp571
a(F42.70465664864865
F-109.34998293548388
tp572
a(F42.70465664864865
F-108.8840479032258
tp573
a(F42.70465664864865
F-108.41811287096775
tp574
a(F42.70465664864865
F-103.29282751612904
tp575
a(F42.70465664864865
F-102.82689248387098
tp576
a(F42.70465664864865
F-102.3609574516129
tp577
a(F42.70465664864865
F-101.89502241935485
tp578
a(F42.70465664864865
F-101.42908738709679
tp579
a(F42.70465664864865
F-100.96315235483871
tp580
a(F42.70465664864865
F-100.49721732258065
tp581
a(F42.70465664864865
F-100.03128229032258
tp582
a(F42.70465664864865
F-99.56534725806452
tp583
a(F42.70465664864865
F-99.09941222580645
tp584
a(F42.70465664864865
F-98.63347719354839
tp585
a(F42.70465664864865
F-98.16754216129033
tp586
a(F42.70465664864865
F-97.70160712903225
tp587
a(F43.03864171621622
F-124.25990396774195
tp588
a(F43.03864171621622
F-123.79396893548387
tp589
a(F43.03864171621622
F-123.32803390322582
tp590
a(F43.03864171621622
F-122.86209887096776
tp591
a(F43.03864171621622
F-122.39616383870968
tp592
a(F43.03864171621622
F-121.93022880645162
tp593
a(F43.03864171621622
F-121.46429377419355
tp594
a(F43.03864171621622
F-120.99835874193549
tp595
a(F43.03864171621622
F-120.53242370967743
tp596
a(F43.03864171621622
F-120.06648867741936
tp597
a(F43.03864171621622
F-119.6005536451613
tp598
a(F43.03864171621622
F-119.13461861290324
tp599
a(F43.03864171621622
F-118.66868358064517
tp600
a(F43.03864171621622
F-118.2027485483871
tp601
a(F43.03864171621622
F-117.73681351612903
tp602
a(F43.03864171621622
F-117.27087848387097
tp603
a(F43.03864171621622
F-116.80494345161291
tp604
a(F43.03864171621622
F-116.33900841935484
tp605
a(F43.03864171621622
F-115.87307338709678
tp606
a(F43.03864171621622
F-115.40713835483872
tp607
a(F43.03864171621622
F-114.94120332258065
tp608
a(F43.03864171621622
F-114.47526829032259
tp609
a(F43.03864171621622
F-114.00933325806452
tp610
a(F43.03864171621622
F-113.54339822580646
tp611
a(F43.03864171621622
F-113.0774631935484
tp612
a(F43.03864171621622
F-112.61152816129032
tp613
a(F43.03864171621622
F-112.14559312903226
tp614
a(F43.03864171621622
F-111.6796580967742
tp615
a(F43.03864171621622
F-111.21372306451613
tp616
a(F43.03864171621622
F-110.74778803225807
tp617
a(F43.03864171621622
F-110.28185300000001
tp618
a(F43.03864171621622
F-104.69063261290323
tp619
a(F43.03864171621622
F-104.22469758064517
tp620
a(F43.03864171621622
F-103.7587625483871
tp621
a(F43.03864171621622
F-103.29282751612904
tp622
a(F43.03864171621622
F-102.82689248387098
tp623
a(F43.03864171621622
F-102.3609574516129
tp624
a(F43.03864171621622
F-101.89502241935485
tp625
a(F43.03864171621622
F-101.42908738709679
tp626
a(F43.03864171621622
F-100.96315235483871
tp627
a(F43.03864171621622
F-100.49721732258065
tp628
a(F43.03864171621622
F-100.03128229032258
tp629
a(F43.03864171621622
F-99.56534725806452
tp630
a(F43.03864171621622
F-99.09941222580645
tp631
a(F43.37262678378379
F-124.25990396774195
tp632
a(F43.37262678378379
F-123.79396893548387
tp633
a(F43.37262678378379
F-123.32803390322582
tp634
a(F43.37262678378379
F-122.86209887096776
tp635
a(F43.37262678378379
F-122.39616383870968
tp636
a(F43.37262678378379
F-121.93022880645162
tp637
a(F43.37262678378379
F-121.46429377419355
tp638
a(F43.37262678378379
F-120.99835874193549
tp639
a(F43.37262678378379
F-120.53242370967743
tp640
a(F43.37262678378379
F-120.06648867741936
tp641
a(F43.37262678378379
F-119.6005536451613
tp642
a(F43.37262678378379
F-119.13461861290324
tp643
a(F43.37262678378379
F-118.66868358064517
tp644
a(F43.37262678378379
F-118.2027485483871
tp645
a(F43.37262678378379
F-117.73681351612903
tp646
a(F43.37262678378379
F-117.27087848387097
tp647
a(F43.37262678378379
F-116.80494345161291
tp648
a(F43.37262678378379
F-116.33900841935484
tp649
a(F43.37262678378379
F-115.87307338709678
tp650
a(F43.37262678378379
F-115.40713835483872
tp651
a(F43.37262678378379
F-114.94120332258065
tp652
a(F43.37262678378379
F-114.47526829032259
tp653
a(F43.37262678378379
F-114.00933325806452
tp654
a(F43.37262678378379
F-113.54339822580646
tp655
a(F43.37262678378379
F-113.0774631935484
tp656
a(F43.37262678378379
F-112.61152816129032
tp657
a(F43.37262678378379
F-106.55437274193548
tp658
a(F43.37262678378379
F-106.08843770967742
tp659
a(F43.37262678378379
F-105.62250267741936
tp660
a(F43.37262678378379
F-105.15656764516129
tp661
a(F43.37262678378379
F-104.69063261290323
tp662
a(F43.37262678378379
F-104.22469758064517
tp663
a(F43.37262678378379
F-103.7587625483871
tp664
a(F43.37262678378379
F-103.29282751612904
tp665
a(F43.37262678378379
F-102.82689248387098
tp666
a(F43.37262678378379
F-102.3609574516129
tp667
a(F43.37262678378379
F-101.89502241935485
tp668
a(F43.37262678378379
F-101.42908738709679
tp669
a(F43.37262678378379
F-100.96315235483871
tp670
a(F43.37262678378379
F-100.49721732258065
tp671
a(F43.37262678378379
F-100.03128229032258
tp672
a(F43.706611851351354
F-123.79396893548387
tp673
a(F43.706611851351354
F-123.32803390322582
tp674
a(F43.706611851351354
F-122.86209887096776
tp675
a(F43.706611851351354
F-122.39616383870968
tp676
a(F43.706611851351354
F-121.93022880645162
tp677
a(F43.706611851351354
F-121.46429377419355
tp678
a(F43.706611851351354
F-120.99835874193549
tp679
a(F43.706611851351354
F-120.53242370967743
tp680
a(F43.706611851351354
F-120.06648867741936
tp681
a(F43.706611851351354
F-119.6005536451613
tp682
a(F43.706611851351354
F-119.13461861290324
tp683
a(F43.706611851351354
F-118.66868358064517
tp684
a(F43.706611851351354
F-118.2027485483871
tp685
a(F43.706611851351354
F-117.73681351612903
tp686
a(F43.706611851351354
F-117.27087848387097
tp687
a(F43.706611851351354
F-116.80494345161291
tp688
a(F43.706611851351354
F-116.33900841935484
tp689
a(F43.706611851351354
F-115.87307338709678
tp690
a(F43.706611851351354
F-115.40713835483872
tp691
a(F43.706611851351354
F-107.95217783870969
tp692
a(F43.706611851351354
F-107.48624280645161
tp693
a(F43.706611851351354
F-107.02030777419355
tp694
a(F43.706611851351354
F-106.55437274193548
tp695
a(F43.706611851351354
F-106.08843770967742
tp696
a(F43.706611851351354
F-105.62250267741936
tp697
a(F43.706611851351354
F-105.15656764516129
tp698
a(F43.706611851351354
F-104.69063261290323
tp699
a(F43.706611851351354
F-104.22469758064517
tp700
a(F43.706611851351354
F-103.7587625483871
tp701
a(F43.706611851351354
F-103.29282751612904
tp702
a(F43.706611851351354
F-102.82689248387098
tp703
a(F43.706611851351354
F-102.3609574516129
tp704
a(F43.706611851351354
F-101.89502241935485
tp705
a(F43.706611851351354
F-101.42908738709679
tp706
a(F44.04059691891892
F-123.79396893548387
tp707
a(F44.04059691891892
F-123.32803390322582
tp708
a(F44.04059691891892
F-122.86209887096776
tp709
a(F44.04059691891892
F-122.39616383870968
tp710
a(F44.04059691891892
F-121.93022880645162
tp711
a(F44.04059691891892
F-121.46429377419355
tp712
a(F44.04059691891892
F-120.99835874193549
tp713
a(F44.04059691891892
F-120.53242370967743
tp714
a(F44.04059691891892
F-120.06648867741936
tp715
a(F44.04059691891892
F-119.6005536451613
tp716
a(F44.04059691891892
F-119.13461861290324
tp717
a(F44.04059691891892
F-118.66868358064517
tp718
a(F44.04059691891892
F-110.28185300000001
tp719
a(F44.04059691891892
F-109.81591796774194
tp720
a(F44.04059691891892
F-109.34998293548388
tp721
a(F44.04059691891892
F-108.8840479032258
tp722
a(F44.04059691891892
F-108.41811287096775
tp723
a(F44.04059691891892
F-107.95217783870969
tp724
a(F44.04059691891892
F-107.48624280645161
tp725
a(F44.04059691891892
F-107.02030777419355
tp726
a(F44.04059691891892
F-106.55437274193548
tp727
a(F44.04059691891892
F-106.08843770967742
tp728
a(F44.04059691891892
F-105.62250267741936
tp729
a(F44.04059691891892
F-105.15656764516129
tp730
a(F44.04059691891892
F-104.69063261290323
tp731
a(F44.04059691891892
F-104.22469758064517
tp732
a(F44.04059691891892
F-103.7587625483871
tp733
a(F44.04059691891892
F-103.29282751612904
tp734
a(F44.04059691891892
F-102.82689248387098
tp735
a(F44.37458198648649
F-123.79396893548387
tp736
a(F44.37458198648649
F-112.61152816129032
tp737
a(F44.37458198648649
F-112.14559312903226
tp738
a(F44.37458198648649
F-111.6796580967742
tp739
a(F44.37458198648649
F-111.21372306451613
tp740
a(F44.37458198648649
F-110.74778803225807
tp741
a(F44.37458198648649
F-110.28185300000001
tp742
a(F44.37458198648649
F-109.81591796774194
tp743
a(F44.37458198648649
F-109.34998293548388
tp744
a(F44.37458198648649
F-108.8840479032258
tp745
a(F44.37458198648649
F-108.41811287096775
tp746
a(F44.37458198648649
F-107.95217783870969
tp747
a(F44.37458198648649
F-107.48624280645161
tp748
a(F44.37458198648649
F-107.02030777419355
tp749
a(F44.37458198648649
F-106.55437274193548
tp750
a(F44.37458198648649
F-106.08843770967742
tp751
a(F44.37458198648649
F-105.62250267741936
tp752
a(F44.37458198648649
F-105.15656764516129
tp753
a(F44.37458198648649
F-104.69063261290323
tp754
a(F44.37458198648649
F-104.22469758064517
tp755
a(F44.70856705405406
F-115.40713835483872
tp756
a(F44.70856705405406
F-114.94120332258065
tp757
a(F44.70856705405406
F-114.47526829032259
tp758
a(F44.70856705405406
F-114.00933325806452
tp759
a(F44.70856705405406
F-113.54339822580646
tp760
a(F44.70856705405406
F-113.0774631935484
tp761
a(F44.70856705405406
F-112.61152816129032
tp762
a(F44.70856705405406
F-112.14559312903226
tp763
a(F44.70856705405406
F-111.6796580967742
tp764
a(F44.70856705405406
F-111.21372306451613
tp765
a(F44.70856705405406
F-110.74778803225807
tp766
a(F44.70856705405406
F-110.28185300000001
tp767
a(F44.70856705405406
F-109.81591796774194
tp768
a(F44.70856705405406
F-109.34998293548388
tp769
a(F44.70856705405406
F-108.8840479032258
tp770
a(F44.70856705405406
F-108.41811287096775
tp771
a(F44.70856705405406
F-107.95217783870969
tp772
a(F44.70856705405406
F-107.48624280645161
tp773
a(F44.70856705405406
F-107.02030777419355
tp774
a(F44.70856705405406
F-106.55437274193548
tp775
a(F44.70856705405406
F-106.08843770967742
tp776
a(F44.70856705405406
F-105.62250267741936
tp777
a(F45.042552121621625
F-119.13461861290324
tp778
a(F45.042552121621625
F-118.66868358064517
tp779
a(F45.042552121621625
F-118.2027485483871
tp780
a(F45.042552121621625
F-117.73681351612903
tp781
a(F45.042552121621625
F-117.27087848387097
tp782
a(F45.042552121621625
F-116.80494345161291
tp783
a(F45.042552121621625
F-116.33900841935484
tp784
a(F45.042552121621625
F-115.87307338709678
tp785
a(F45.042552121621625
F-115.40713835483872
tp786
a(F45.042552121621625
F-114.94120332258065
tp787
a(F45.042552121621625
F-114.47526829032259
tp788
a(F45.042552121621625
F-114.00933325806452
tp789
a(F45.042552121621625
F-113.54339822580646
tp790
a(F45.042552121621625
F-113.0774631935484
tp791
a(F45.042552121621625
F-112.61152816129032
tp792
a(F45.042552121621625
F-112.14559312903226
tp793
a(F45.042552121621625
F-111.6796580967742
tp794
a(F45.042552121621625
F-111.21372306451613
tp795
a(F45.042552121621625
F-110.74778803225807
tp796
a(F45.042552121621625
F-110.28185300000001
tp797
a(F45.042552121621625
F-109.81591796774194
tp798
a(F45.042552121621625
F-109.34998293548388
tp799
a(F45.042552121621625
F-108.8840479032258
tp800
a(F45.042552121621625
F-108.41811287096775
tp801
a(F45.042552121621625
F-107.95217783870969
tp802
a(F45.042552121621625
F-107.48624280645161
tp803
a(F45.37653718918919
F-123.79396893548387
tp804
a(F45.37653718918919
F-123.32803390322582
tp805
a(F45.37653718918919
F-122.86209887096776
tp806
a(F45.37653718918919
F-122.39616383870968
tp807
a(F45.37653718918919
F-121.93022880645162
tp808
a(F45.37653718918919
F-121.46429377419355
tp809
a(F45.37653718918919
F-120.99835874193549
tp810
a(F45.37653718918919
F-120.53242370967743
tp811
a(F45.37653718918919
F-120.06648867741936
tp812
a(F45.37653718918919
F-119.6005536451613
tp813
a(F45.37653718918919
F-119.13461861290324
tp814
a(F45.37653718918919
F-118.66868358064517
tp815
a(F45.37653718918919
F-118.2027485483871
tp816
a(F45.37653718918919
F-117.73681351612903
tp817
a(F45.37653718918919
F-117.27087848387097
tp818
a(F45.37653718918919
F-116.80494345161291
tp819
a(F45.37653718918919
F-116.33900841935484
tp820
a(F45.37653718918919
F-115.87307338709678
tp821
a(F45.37653718918919
F-115.40713835483872
tp822
a(F45.37653718918919
F-114.94120332258065
tp823
a(F45.37653718918919
F-114.47526829032259
tp824
a(F45.37653718918919
F-114.00933325806452
tp825
a(F45.37653718918919
F-113.54339822580646
tp826
a(F45.37653718918919
F-113.0774631935484
tp827
a(F45.37653718918919
F-112.61152816129032
tp828
a(F45.37653718918919
F-112.14559312903226
tp829
a(F45.37653718918919
F-111.6796580967742
tp830
a(F45.37653718918919
F-111.21372306451613
tp831
a(F45.37653718918919
F-110.74778803225807
tp832
a(F45.37653718918919
F-110.28185300000001
tp833
a(F45.37653718918919
F-109.81591796774194
tp834
a(F45.37653718918919
F-109.34998293548388
tp835
a(F45.71052225675676
F-123.79396893548387
tp836
a(F45.71052225675676
F-123.32803390322582
tp837
a(F45.71052225675676
F-122.86209887096776
tp838
a(F45.71052225675676
F-122.39616383870968
tp839
a(F45.71052225675676
F-121.93022880645162
tp840
a(F45.71052225675676
F-121.46429377419355
tp841
a(F45.71052225675676
F-120.99835874193549
tp842
a(F45.71052225675676
F-120.53242370967743
tp843
a(F45.71052225675676
F-120.06648867741936
tp844
a(F45.71052225675676
F-119.6005536451613
tp845
a(F45.71052225675676
F-119.13461861290324
tp846
a(F45.71052225675676
F-118.66868358064517
tp847
a(F45.71052225675676
F-118.2027485483871
tp848
a(F45.71052225675676
F-117.73681351612903
tp849
a(F45.71052225675676
F-117.27087848387097
tp850
a(F45.71052225675676
F-116.80494345161291
tp851
a(F45.71052225675676
F-116.33900841935484
tp852
a(F45.71052225675676
F-115.87307338709678
tp853
a(F45.71052225675676
F-115.40713835483872
tp854
a(F45.71052225675676
F-114.94120332258065
tp855
a(F45.71052225675676
F-114.47526829032259
tp856
a(F45.71052225675676
F-114.00933325806452
tp857
a(F45.71052225675676
F-113.54339822580646
tp858
a(F45.71052225675676
F-113.0774631935484
tp859
a(F45.71052225675676
F-112.61152816129032
tp860
a(F45.71052225675676
F-112.14559312903226
tp861
a(F45.71052225675676
F-111.6796580967742
tp862
a(F46.04450732432433
F-123.79396893548387
tp863
a(F46.04450732432433
F-123.32803390322582
tp864
a(F46.04450732432433
F-122.86209887096776
tp865
a(F46.04450732432433
F-122.39616383870968
tp866
a(F46.04450732432433
F-121.93022880645162
tp867
a(F46.04450732432433
F-121.46429377419355
tp868
a(F46.04450732432433
F-120.99835874193549
tp869
a(F46.04450732432433
F-120.53242370967743
tp870
a(F46.04450732432433
F-120.06648867741936
tp871
a(F46.04450732432433
F-119.6005536451613
tp872
a(F46.04450732432433
F-119.13461861290324
tp873
a(F46.04450732432433
F-118.66868358064517
tp874
a(F46.04450732432433
F-118.2027485483871
tp875
a(F46.04450732432433
F-117.73681351612903
tp876
a(F46.04450732432433
F-117.27087848387097
tp877
a(F46.04450732432433
F-116.80494345161291
tp878
a(F46.04450732432433
F-116.33900841935484
tp879
a(F46.04450732432433
F-115.87307338709678
tp880
a(F46.04450732432433
F-115.40713835483872
tp881
a(F46.04450732432433
F-114.94120332258065
tp882
a(F46.04450732432433
F-114.47526829032259
tp883
a(F46.04450732432433
F-114.00933325806452
tp884
a(F46.378492391891896
F-123.79396893548387
tp885
a(F46.378492391891896
F-123.32803390322582
tp886
a(F46.378492391891896
F-122.86209887096776
tp887
a(F46.378492391891896
F-122.39616383870968
tp888
a(F46.378492391891896
F-121.93022880645162
tp889
a(F46.378492391891896
F-121.46429377419355
tp890
a(F46.378492391891896
F-120.99835874193549
tp891
a(F46.378492391891896
F-120.53242370967743
tp892
a(F46.378492391891896
F-120.06648867741936
tp893
a(F46.378492391891896
F-119.6005536451613
tp894
a(F46.378492391891896
F-119.13461861290324
tp895
a(F46.378492391891896
F-118.66868358064517
tp896
a(F46.378492391891896
F-118.2027485483871
tp897
a(F46.378492391891896
F-117.73681351612903
tp898
a(F46.378492391891896
F-117.27087848387097
tp899
a(F46.712477459459464
F-123.79396893548387
tp900
a(F46.712477459459464
F-123.32803390322582
tp901
a(F46.712477459459464
F-122.86209887096776
tp902
a(F46.712477459459464
F-122.39616383870968
tp903
a.