(lp0
(F33.01908968918919
F-80.46201093548387
tp1
a(F33.01908968918919
F-79.9960759032258
tp2
a(F33.01908968918919
F-79.53014087096774
tp3
a(F33.353074756756754
F-80.92794596774193
tp4
a(F33.353074756756754
F-80.46201093548387
tp5
a(F33.353074756756754
F-79.9960759032258
tp6
a(F33.353074756756754
F-79.53014087096774
tp7
a(F33.68705982432432
F-81.85981603225807
tp8
a(F33.68705982432432
F-81.393881
tp9
a(F33.68705982432432
F-80.92794596774193
tp10
a(F33.68705982432432
F-80.46201093548387
tp11
a(F33.68705982432432
F-79.9960759032258
tp12
a(F34.02104489189189
F-82.32575106451613
tp13
a(F34.02104489189189
F-81.85981603225807
tp14
a(F34.02104489189189
F-81.393881
tp15
a(F34.02104489189189
F-80.92794596774193
tp16
a(F34.02104489189189
F-80.46201093548387
tp17
a(F34.35502995945946
F-83.25762112903226
tp18
a(F34.35502995945946
F-82.79168609677419
tp19
a(F34.35502995945946
F-82.32575106451613
tp20
a(F34.35502995945946
F-81.85981603225807
tp21
a(F34.35502995945946
F-81.393881
tp22
a(F34.35502995945946
F-80.92794596774193
tp23
a(F34.689015027027025
F-83.72355616129033
tp24
a(F34.689015027027025
F-83.25762112903226
tp25
a(F34.689015027027025
F-82.79168609677419
tp26
a(F34.689015027027025
F-82.32575106451613
tp27
a(F34.689015027027025
F-81.85981603225807
tp28
a(F35.02300009459459
F-84.65542622580645
tp29
a(F35.02300009459459
F-84.18949119354838
tp30
a(F35.02300009459459
F-83.72355616129033
tp31
a(F35.02300009459459
F-83.25762112903226
tp32
a(F35.02300009459459
F-82.79168609677419
tp33
a(F35.02300009459459
F-82.32575106451613
tp34
a(F35.35698516216216
F-85.12136125806452
tp35
a(F35.35698516216216
F-84.65542622580645
tp36
a(F35.35698516216216
F-84.18949119354838
tp37
a(F35.35698516216216
F-83.72355616129033
tp38
a(F35.35698516216216
F-83.25762112903226
tp39
a(F35.69097022972973
F-86.05323132258064
tp40
a(F35.69097022972973
F-85.58729629032258
tp41
a(F35.69097022972973
F-85.12136125806452
tp42
a(F35.69097022972973
F-84.65542622580645
tp43
a(F35.69097022972973
F-84.18949119354838
tp44
a(F35.69097022972973
F-83.72355616129033
tp45
a(F36.024955297297296
F-86.51916635483872
tp46
a(F36.024955297297296
F-86.05323132258064
tp47
a(F36.024955297297296
F-85.58729629032258
tp48
a(F36.024955297297296
F-85.12136125806452
tp49
a(F36.024955297297296
F-84.65542622580645
tp50
a(F36.358940364864864
F-87.45103641935484
tp51
a(F36.358940364864864
F-86.98510138709678
tp52
a(F36.358940364864864
F-86.51916635483872
tp53
a(F36.358940364864864
F-86.05323132258064
tp54
a(F36.358940364864864
F-85.58729629032258
tp55
a(F36.358940364864864
F-85.12136125806452
tp56
a(F36.69292543243243
F-88.38290648387097
tp57
a(F36.69292543243243
F-87.91697145161291
tp58
a(F36.69292543243243
F-87.45103641935484
tp59
a(F36.69292543243243
F-86.98510138709678
tp60
a(F36.69292543243243
F-86.51916635483872
tp61
a(F36.69292543243243
F-86.05323132258064
tp62
a(F37.0269105
F-88.84884151612903
tp63
a(F37.0269105
F-88.38290648387097
tp64
a(F37.0269105
F-87.91697145161291
tp65
a(F37.0269105
F-87.45103641935484
tp66
a(F37.0269105
F-86.98510138709678
tp67
a(F37.0269105
F-86.51916635483872
tp68
a(F37.36089556756757
F-89.78071158064516
tp69
a(F37.36089556756757
F-89.3147765483871
tp70
a(F37.36089556756757
F-88.84884151612903
tp71
a(F37.36089556756757
F-88.38290648387097
tp72
a(F37.36089556756757
F-87.91697145161291
tp73
a(F37.36089556756757
F-87.45103641935484
tp74
a(F37.694880635135135
F-90.7125816451613
tp75
a(F37.694880635135135
F-90.24664661290322
tp76
a(F37.694880635135135
F-89.78071158064516
tp77
a(F37.694880635135135
F-89.3147765483871
tp78
a(F37.694880635135135
F-88.84884151612903
tp79
a(F37.694880635135135
F-88.38290648387097
tp80
a(F38.0288657027027
F-91.64445170967741
tp81
a(F38.0288657027027
F-91.17851667741937
tp82
a(F38.0288657027027
F-90.7125816451613
tp83
a(F38.0288657027027
F-90.24664661290322
tp84
a(F38.0288657027027
F-89.78071158064516
tp85
a(F38.0288657027027
F-89.3147765483871
tp86
a(F38.0288657027027
F-88.84884151612903
tp87
a(F38.36285077027027
F-92.11038674193549
tp88
a(F38.36285077027027
F-91.64445170967741
tp89
a(F38.36285077027027
F-91.17851667741937
tp90
a(F38.36285077027027
F-90.7125816451613
tp91
a(F38.36285077027027
F-90.24664661290322
tp92
a(F38.36285077027027
F-89.78071158064516
tp93
a(F38.69683583783784
F-93.04225680645162
tp94
a(F38.69683583783784
F-92.57632177419356
tp95
a(F38.69683583783784
F-92.11038674193549
tp96
a(F38.69683583783784
F-91.64445170967741
tp97
a(F38.69683583783784
F-91.17851667741937
tp98
a(F38.69683583783784
F-90.7125816451613
tp99
a(F39.030820905405406
F-93.97412687096775
tp100
a(F39.030820905405406
F-93.50819183870968
tp101
a(F39.030820905405406
F-93.04225680645162
tp102
a(F39.030820905405406
F-92.57632177419356
tp103
a(F39.030820905405406
F-92.11038674193549
tp104
a(F39.030820905405406
F-91.64445170967741
tp105
a(F39.364805972972974
F-95.37193196774194
tp106
a(F39.364805972972974
F-94.90599693548387
tp107
a(F39.364805972972974
F-94.44006190322581
tp108
a(F39.364805972972974
F-93.97412687096775
tp109
a(F39.364805972972974
F-93.50819183870968
tp110
a(F39.364805972972974
F-93.04225680645162
tp111
a(F39.364805972972974
F-92.57632177419356
tp112
a(F39.69879104054054
F-96.30380203225806
tp113
a(F39.69879104054054
F-95.837867
tp114
a(F39.69879104054054
F-95.37193196774194
tp115
a(F39.69879104054054
F-94.90599693548387
tp116
a(F39.69879104054054
F-94.44006190322581
tp117
a(F39.69879104054054
F-93.97412687096775
tp118
a(F39.69879104054054
F-93.50819183870968
tp119
a(F40.03277610810811
F-97.2356720967742
tp120
a(F40.03277610810811
F-96.76973706451614
tp121
a(F40.03277610810811
F-96.30380203225806
tp122
a(F40.03277610810811
F-95.837867
tp123
a(F40.03277610810811
F-95.37193196774194
tp124
a(F40.03277610810811
F-94.90599693548387
tp125
a(F40.03277610810811
F-94.44006190322581
tp126
a(F40.36676117567568
F-98.16754216129033
tp127
a(F40.36676117567568
F-97.70160712903225
tp128
a(F40.36676117567568
F-97.2356720967742
tp129
a(F40.36676117567568
F-96.76973706451614
tp130
a(F40.36676117567568
F-96.30380203225806
tp131
a(F40.36676117567568
F-95.837867
tp132
a(F40.36676117567568
F-95.37193196774194
tp133
a(F40.700746243243245
F-99.56534725806452
tp134
a(F40.700746243243245
F-99.09941222580645
tp135
a(F40.700746243243245
F-98.63347719354839
tp136
a(F40.700746243243245
F-98.16754216129033
tp137
a(F40.700746243243245
F-97.70160712903225
tp138
a(F40.700746243243245
F-97.2356720967742
tp139
a(F40.700746243243245
F-96.76973706451614
tp140
a(F40.700746243243245
F-96.30380203225806
tp141
a(F41.03473131081081
F-100.49721732258065
tp142
a(F41.03473131081081
F-100.03128229032258
tp143
a(F41.03473131081081
F-99.56534725806452
tp144
a(F41.03473131081081
F-99.09941222580645
tp145
a(F41.03473131081081
F-98.63347719354839
tp146
a(F41.03473131081081
F-98.16754216129033
tp147
a(F41.03473131081081
F-97.70160712903225
tp148
a(F41.03473131081081
F-97.2356720967742
tp149
a(F41.36871637837838
F-101.89502241935485
tp150
a(F41.36871637837838
F-101.42908738709679
tp151
a(F41.36871637837838
F-100.96315235483871
tp152
a(F41.36871637837838
F-100.49721732258065
tp153
a(F41.36871637837838
F-100.03128229032258
tp154
a(F41.36871637837838
F-99.56534725806452
tp155
a(F41.36871637837838
F-99.09941222580645
tp156
a(F41.36871637837838
F-98.63347719354839
tp157
a(F41.70270144594595
F-103.29282751612904
tp158
a(F41.70270144594595
F-102.82689248387098
tp159
a(F41.70270144594595
F-102.3609574516129
tp160
a(F41.70270144594595
F-101.89502241935485
tp161
a(F41.70270144594595
F-101.42908738709679
tp162
a(F41.70270144594595
F-100.96315235483871
tp163
a(F41.70270144594595
F-100.49721732258065
tp164
a(F41.70270144594595
F-100.03128229032258
tp165
a(F41.70270144594595
F-99.56534725806452
tp166
a(F42.036686513513516
F-104.69063261290323
tp167
a(F42.036686513513516
F-104.22469758064517
tp168
a(F42.036686513513516
F-103.7587625483871
tp169
a(F42.036686513513516
F-103.29282751612904
tp170
a(F42.036686513513516
F-102.82689248387098
tp171
a(F42.036686513513516
F-102.3609574516129
tp172
a(F42.036686513513516
F-101.89502241935485
tp173
a(F42.036686513513516
F-101.42908738709679
tp174
a(F42.036686513513516
F-100.96315235483871
tp175
a(F42.37067158108108
F-106.55437274193548
tp176
a(F42.37067158108108
F-106.08843770967742
tp177
a(F42.37067158108108
F-105.62250267741936
tp178
a(F42.37067158108108
F-105.15656764516129
tp179
a(F42.37067158108108
F-104.69063261290323
tp180
a(F42.37067158108108
F-104.22469758064517
tp181
a(F42.37067158108108
F-103.7587625483871
tp182
a(F42.37067158108108
F-103.29282751612904
tp183
a(F42.37067158108108
F-102.82689248387098
tp184
a(F42.37067158108108
F-102.3609574516129
tp185
a(F42.70465664864865
F-107.95217783870969
tp186
a(F42.70465664864865
F-107.48624280645161
tp187
a(F42.70465664864865
F-107.02030777419355
tp188
a(F42.70465664864865
F-106.55437274193548
tp189
a(F42.70465664864865
F-106.08843770967742
tp190
a(F42.70465664864865
F-105.62250267741936
tp191
a(F42.70465664864865
F-105.15656764516129
tp192
a(F42.70465664864865
F-104.69063261290323
tp193
a(F42.70465664864865
F-104.22469758064517
tp194
a(F42.70465664864865
F-103.7587625483871
tp195
a(F43.03864171621622
F-109.81591796774194
tp196
a(F43.03864171621622
F-109.34998293548388
tp197
a(F43.03864171621622
F-108.8840479032258
tp198
a(F43.03864171621622
F-108.41811287096775
tp199
a(F43.03864171621622
F-107.95217783870969
tp200
a(F43.03864171621622
F-107.48624280645161
tp201
a(F43.03864171621622
F-107.02030777419355
tp202
a(F43.03864171621622
F-106.55437274193548
tp203
a(F43.03864171621622
F-106.08843770967742
tp204
a(F43.03864171621622
F-105.62250267741936
tp205
a(F43.03864171621622
F-105.15656764516129
tp206
a(F43.37262678378379
F-112.14559312903226
tp207
a(F43.37262678378379
F-111.6796580967742
tp208
a(F43.37262678378379
F-111.21372306451613
tp209
a(F43.37262678378379
F-110.74778803225807
tp210
a(F43.37262678378379
F-110.28185300000001
tp211
a(F43.37262678378379
F-109.81591796774194
tp212
a(F43.37262678378379
F-109.34998293548388
tp213
a(F43.37262678378379
F-108.8840479032258
tp214
a(F43.37262678378379
F-108.41811287096775
tp215
a(F43.37262678378379
F-107.95217783870969
tp216
a(F43.37262678378379
F-107.48624280645161
tp217
a(F43.37262678378379
F-107.02030777419355
tp218
a(F43.706611851351354
F-114.94120332258065
tp219
a(F43.706611851351354
F-114.47526829032259
tp220
a(F43.706611851351354
F-114.00933325806452
tp221
a(F43.706611851351354
F-113.54339822580646
tp222
a(F43.706611851351354
F-113.0774631935484
tp223
a(F43.706611851351354
F-112.61152816129032
tp224
a(F43.706611851351354
F-112.14559312903226
tp225
a(F43.706611851351354
F-111.6796580967742
tp226
a(F43.706611851351354
F-111.21372306451613
tp227
a(F43.706611851351354
F-110.74778803225807
tp228
a(F43.706611851351354
F-110.28185300000001
tp229
a(F43.706611851351354
F-109.81591796774194
tp230
a(F43.706611851351354
F-109.34998293548388
tp231
a(F43.706611851351354
F-108.8840479032258
tp232
a(F43.706611851351354
F-108.41811287096775
tp233
a(F44.04059691891892
F-118.2027485483871
tp234
a(F44.04059691891892
F-117.73681351612903
tp235
a(F44.04059691891892
F-117.27087848387097
tp236
a(F44.04059691891892
F-116.80494345161291
tp237
a(F44.04059691891892
F-116.33900841935484
tp238
a(F44.04059691891892
F-115.87307338709678
tp239
a(F44.04059691891892
F-115.40713835483872
tp240
a(F44.04059691891892
F-114.94120332258065
tp241
a(F44.04059691891892
F-114.47526829032259
tp242
a(F44.04059691891892
F-114.00933325806452
tp243
a(F44.04059691891892
F-113.54339822580646
tp244
a(F44.04059691891892
F-113.0774631935484
tp245
a(F44.04059691891892
F-112.61152816129032
tp246
a(F44.04059691891892
F-112.14559312903226
tp247
a(F44.04059691891892
F-111.6796580967742
tp248
a(F44.04059691891892
F-111.21372306451613
tp249
a(F44.04059691891892
F-110.74778803225807
tp250
a(F44.37458198648649
F-123.32803390322582
tp251
a(F44.37458198648649
F-122.86209887096776
tp252
a(F44.37458198648649
F-122.39616383870968
tp253
a(F44.37458198648649
F-121.93022880645162
tp254
a(F44.37458198648649
F-121.46429377419355
tp255
a(F44.37458198648649
F-120.99835874193549
tp256
a(F44.37458198648649
F-120.53242370967743
tp257
a(F44.37458198648649
F-120.06648867741936
tp258
a(F44.37458198648649
F-119.6005536451613
tp259
a(F44.37458198648649
F-119.13461861290324
tp260
a(F44.37458198648649
F-118.66868358064517
tp261
a(F44.37458198648649
F-118.2027485483871
tp262
a(F44.37458198648649
F-117.73681351612903
tp263
a(F44.37458198648649
F-117.27087848387097
tp264
a(F44.37458198648649
F-116.80494345161291
tp265
a(F44.37458198648649
F-116.33900841935484
tp266
a(F44.37458198648649
F-115.87307338709678
tp267
a(F44.37458198648649
F-115.40713835483872
tp268
a(F44.37458198648649
F-114.94120332258065
tp269
a(F44.37458198648649
F-114.47526829032259
tp270
a(F44.37458198648649
F-114.00933325806452
tp271
a(F44.37458198648649
F-113.54339822580646
tp272
a(F44.37458198648649
F-113.0774631935484
tp273
a(F44.70856705405406
F-123.79396893548387
tp274
a(F44.70856705405406
F-123.32803390322582
tp275
a(F44.70856705405406
F-122.86209887096776
tp276
a(F44.70856705405406
F-122.39616383870968
tp277
a(F44.70856705405406
F-121.93022880645162
tp278
a(F44.70856705405406
F-121.46429377419355
tp279
a(F44.70856705405406
F-120.99835874193549
tp280
a(F44.70856705405406
F-120.53242370967743
tp281
a(F44.70856705405406
F-120.06648867741936
tp282
a(F44.70856705405406
F-119.6005536451613
tp283
a(F44.70856705405406
F-119.13461861290324
tp284
a(F44.70856705405406
F-118.66868358064517
tp285
a(F44.70856705405406
F-118.2027485483871
tp286
a(F44.70856705405406
F-117.73681351612903
tp287
a(F44.70856705405406
F-117.27087848387097
tp288
a(F44.70856705405406
F-116.80494345161291
tp289
a(F44.70856705405406
F-116.33900841935484
tp290
a(F44.70856705405406
F-115.87307338709678
tp291
a(F45.042552121621625
F-123.79396893548387
tp292
a(F45.042552121621625
F-123.32803390322582
tp293
a(F45.042552121621625
F-122.86209887096776
tp294
a(F45.042552121621625
F-122.39616383870968
tp295
a(F45.042552121621625
F-121.93022880645162
tp296
a(F45.042552121621625
F-121.46429377419355
tp297
a(F45.042552121621625
F-120.99835874193549
tp298
a(F45.042552121621625
F-120.53242370967743
tp299
a(F45.042552121621625
F-120.06648867741936
tp300
a(F45.042552121621625
F-119.6005536451613
tp301
a.